; Function Attrs: nofree norecurse nosync nounwind memory(argmem: read) uwtable
define range(i32 0, 16) i32 @lv_image_get_inner_align(ptr noundef readonly captures(address_is_null) %0) local_unnamed_addr #3 {
  %.not = icmp eq ptr %0, null
  br i1 %.not, label %.preheader, label %2

.preheader:                                       ; preds = %1, %.preheader
  br label %.preheader

2:                                                ; preds = %1
  %3 = getelementptr inbounds nuw i8, ptr %0, i64 116
  %4 = load i16, ptr %3, align 4
  %5 = lshr i16 %4, 8
  %6 = and i16 %5, 15
  %7 = zext nneg i16 %6 to i32
  ret i32 %7
}